target datalayout = "e-m:e-p270:32:32-p271:32:32-p272:64:64-i64:64-i128:128-f80:128-n8:16:32:64-S128"
target triple = "x86_64-pc-linux-gnu"

%struct.Fxch_Man_t_ = type { ptr, i32, i32, ptr, ptr, ptr, ptr, ptr, ptr, ptr, ptr, ptr, ptr, ptr, ptr, i32, ptr, ptr, ptr, ptr, ptr, ptr, ptr, i64, i64, i32, i32, i32, i32, i32 }
%struct.Vec_Wec_t_ = type { i32, i32, ptr }
%struct.Hsh_VecMan_t_ = type { ptr, ptr, ptr, %struct.Vec_Int_t_, %struct.Vec_Int_t_, %struct.Vec_Int_t_ }
%struct.Vec_Int_t_ = type { i32, i32, ptr }
%struct.Vec_Flt_t_ = type { i32, i32, ptr }

; Function Attrs: inlinehint nounwind uwtable
define internal ptr @Vec_IntStartFull(i32 noundef %0) #3 {
  %2 = alloca i32, align 4
  %3 = alloca ptr, align 8
  store i32 %0, ptr %2, align 4, !tbaa !33
  call void @llvm.lifetime.start.p0(i64 8, ptr %3) #10
  %4 = load i32, ptr %2, align 4, !tbaa !33
  %5 = call ptr @Vec_IntAlloc(i32 noundef %4)
  store ptr %5, ptr %3, align 8, !tbaa !48
  %6 = load i32, ptr %2, align 4, !tbaa !33
  %7 = load ptr, ptr %3, align 8, !tbaa !48
  %8 = getelementptr inbounds nuw %struct.Vec_Int_t_, ptr %7, i32 0, i32 1
  store i32 %6, ptr %8, align 4, !tbaa !49
  %9 = load ptr, ptr %3, align 8, !tbaa !48
  %10 = getelementptr inbounds nuw %struct.Vec_Int_t_, ptr %9, i32 0, i32 2
  %11 = load ptr, ptr %10, align 8, !tbaa !51
  %12 = icmp ne ptr %11, null
  br i1 %12, label %13, label %20

13:                                               ; preds = %1
  %14 = load ptr, ptr %3, align 8, !tbaa !48
  %15 = getelementptr inbounds nuw %struct.Vec_Int_t_, ptr %14, i32 0, i32 2
  %16 = load ptr, ptr %15, align 8, !tbaa !51
  %17 = load i32, ptr %2, align 4, !tbaa !33
  %18 = sext i32 %17 to i64
  %19 = mul i64 4, %18
  call void @llvm.memset.p0.i64(ptr align 4 %16, i8 -1, i64 %19, i1 false)
  br label %20

20:                                               ; preds = %13, %1
  %21 = load ptr, ptr %3, align 8, !tbaa !48
  call void @llvm.lifetime.end.p0(i64 8, ptr %3) #10
  ret ptr %21
}

; Function Attrs: inlinehint nounwind uwtable
define internal i32 @Abc_PrimeCudd(i32 noundef %0) #3 {
  %2 = alloca i32, align 4
  %3 = alloca i32, align 4
  %4 = alloca i32, align 4
  store i32 %0, ptr %2, align 4, !tbaa !33
  call void @llvm.lifetime.start.p0(i64 4, ptr %3) #10
  call void @llvm.lifetime.start.p0(i64 4, ptr %4) #10
  %5 = load i32, ptr %2, align 4, !tbaa !33
  %6 = add i32 %5, -1
  store i32 %6, ptr %2, align 4, !tbaa !33
  br label %7

7:                                                ; preds = %32, %1
  %8 = load i32, ptr %2, align 4, !tbaa !33
  %9 = add i32 %8, 1
  store i32 %9, ptr %2, align 4, !tbaa !33
  %10 = load i32, ptr %2, align 4, !tbaa !33
  %11 = and i32 %10, 1
  %12 = icmp ne i32 %11, 0
  br i1 %12, label %13, label %30

13:                                               ; preds = %7
  store i32 1, ptr %4, align 4, !tbaa !33
  store i32 3, ptr %3, align 4, !tbaa !33
  br label %14

14:                                               ; preds = %26, %13
  %15 = load i32, ptr %3, align 4, !tbaa !33
  %16 = load i32, ptr %3, align 4, !tbaa !33
  %17 = mul nsw i32 %15, %16
  %18 = load i32, ptr %2, align 4, !tbaa !33
  %19 = icmp ule i32 %17, %18
  br i1 %19, label %20, label %29

20:                                               ; preds = %14
  %21 = load i32, ptr %2, align 4, !tbaa !33
  %22 = load i32, ptr %3, align 4, !tbaa !33
  %23 = urem i32 %21, %22
  %24 = icmp eq i32 %23, 0
  br i1 %24, label %25, label %26

25:                                               ; preds = %20
  store i32 0, ptr %4, align 4, !tbaa !33
  br label %29

26:                                               ; preds = %20
  %27 = load i32, ptr %3, align 4, !tbaa !33
  %28 = add nsw i32 %27, 2
  store i32 %28, ptr %3, align 4, !tbaa !33
  br label %14, !llvm.loop !136

29:                                               ; preds = %25, %14
  br label %31

30:                                               ; preds = %7
  store i32 0, ptr %4, align 4, !tbaa !33
  br label %31

31:                                               ; preds = %30, %29
  br label %32

32:                                               ; preds = %31
  %33 = load i32, ptr %4, align 4, !tbaa !33
  %34 = icmp ne i32 %33, 0
  %35 = xor i1 %34, true
  br i1 %35, label %7, label %36, !llvm.loop !137

36:                                               ; preds = %32
  %37 = load i32, ptr %2, align 4, !tbaa !33
  call void @llvm.lifetime.end.p0(i64 4, ptr %4) #10
  call void @llvm.lifetime.end.p0(i64 4, ptr %3) #10
  ret i32 %37
}

; Function Attrs: inlinehint nounwind uwtable
define internal ptr @Vec_IntAlloc(i32 noundef %0) #3 {
  %2 = alloca i32, align 4
  %3 = alloca ptr, align 8
  store i32 %0, ptr %2, align 4, !tbaa !33
  call void @llvm.lifetime.start.p0(i64 8, ptr %3) #10
  %4 = call noalias ptr @malloc(i64 noundef 16) #12
  store ptr %4, ptr %3, align 8, !tbaa !48
  %5 = load i32, ptr %2, align 4, !tbaa !33
  %6 = icmp sgt i32 %5, 0
  br i1 %6, label %7, label %11

7:                                                ; preds = %1
  %8 = load i32, ptr %2, align 4, !tbaa !33
  %9 = icmp slt i32 %8, 16
  br i1 %9, label %10, label %11

10:                                               ; preds = %7
  store i32 16, ptr %2, align 4, !tbaa !33
  br label %11

11:                                               ; preds = %10, %7, %1
  %12 = load ptr, ptr %3, align 8, !tbaa !48
  %13 = getelementptr inbounds nuw %struct.Vec_Int_t_, ptr %12, i32 0, i32 1
  store i32 0, ptr %13, align 4, !tbaa !49
  %14 = load i32, ptr %2, align 4, !tbaa !33
  %15 = load ptr, ptr %3, align 8, !tbaa !48
  %16 = getelementptr inbounds nuw %struct.Vec_Int_t_, ptr %15, i32 0, i32 0
  store i32 %14, ptr %16, align 8, !tbaa !50
  %17 = load ptr, ptr %3, align 8, !tbaa !48
  %18 = getelementptr inbounds nuw %struct.Vec_Int_t_, ptr %17, i32 0, i32 0
  %19 = load i32, ptr %18, align 8, !tbaa !50
  %20 = icmp ne i32 %19, 0
  br i1 %20, label %21, label %28

21:                                               ; preds = %11
  %22 = load ptr, ptr %3, align 8, !tbaa !48
  %23 = getelementptr inbounds nuw %struct.Vec_Int_t_, ptr %22, i32 0, i32 0
  %24 = load i32, ptr %23, align 8, !tbaa !50
  %25 = sext i32 %24 to i64
  %26 = mul i64 4, %25
  %27 = call noalias ptr @malloc(i64 noundef %26) #12
  br label %29

28:                                               ; preds = %11
  br label %29

29:                                               ; preds = %28, %21
  %30 = phi ptr [ %27, %21 ], [ null, %28 ]
  %31 = load ptr, ptr %3, align 8, !tbaa !48
  %32 = getelementptr inbounds nuw %struct.Vec_Int_t_, ptr %31, i32 0, i32 2
  store ptr %30, ptr %32, align 8, !tbaa !51
  %33 = load ptr, ptr %3, align 8, !tbaa !48
  call void @llvm.lifetime.end.p0(i64 8, ptr %3) #10
  ret ptr %33
}

; Function Attrs: inlinehint nounwind uwtable
define internal ptr @Vec_WecAlloc(i32 noundef %0) #3 {
  %2 = alloca i32, align 4
  %3 = alloca ptr, align 8
  store i32 %0, ptr %2, align 4, !tbaa !33
  call void @llvm.lifetime.start.p0(i64 8, ptr %3) #10
  %4 = call noalias ptr @malloc(i64 noundef 16) #12
  store ptr %4, ptr %3, align 8, !tbaa !3
  %5 = load i32, ptr %2, align 4, !tbaa !33
  %6 = icmp sgt i32 %5, 0
  br i1 %6, label %7, label %11

7:                                                ; preds = %1
  %8 = load i32, ptr %2, align 4, !tbaa !33
  %9 = icmp slt i32 %8, 8
  br i1 %9, label %10, label %11

10:                                               ; preds = %7
  store i32 8, ptr %2, align 4, !tbaa !33
  br label %11

11:                                               ; preds = %10, %7, %1
  %12 = load ptr, ptr %3, align 8, !tbaa !3
  %13 = getelementptr inbounds nuw %struct.Vec_Wec_t_, ptr %12, i32 0, i32 1
  store i32 0, ptr %13, align 4, !tbaa !31
  %14 = load i32, ptr %2, align 4, !tbaa !33
  %15 = load ptr, ptr %3, align 8, !tbaa !3
  %16 = getelementptr inbounds nuw %struct.Vec_Wec_t_, ptr %15, i32 0, i32 0
  store i32 %14, ptr %16, align 8, !tbaa !46
  %17 = load ptr, ptr %3, align 8, !tbaa !3
  %18 = getelementptr inbounds nuw %struct.Vec_Wec_t_, ptr %17, i32 0, i32 0
  %19 = load i32, ptr %18, align 8, !tbaa !46
  %20 = icmp ne i32 %19, 0
  br i1 %20, label %21, label %27

21:                                               ; preds = %11
  %22 = load ptr, ptr %3, align 8, !tbaa !3
  %23 = getelementptr inbounds nuw %struct.Vec_Wec_t_, ptr %22, i32 0, i32 0
  %24 = load i32, ptr %23, align 8, !tbaa !46
  %25 = sext i32 %24 to i64
  %26 = call noalias ptr @calloc(i64 noundef %25, i64 noundef 16) #11
  br label %28

27:                                               ; preds = %11
  br label %28

28:                                               ; preds = %27, %21
  %29 = phi ptr [ %26, %21 ], [ null, %27 ]
  %30 = load ptr, ptr %3, align 8, !tbaa !3
  %31 = getelementptr inbounds nuw %struct.Vec_Wec_t_, ptr %30, i32 0, i32 2
  store ptr %29, ptr %31, align 8, !tbaa !47
  %32 = load ptr, ptr %3, align 8, !tbaa !3
  call void @llvm.lifetime.end.p0(i64 8, ptr %3) #10
  ret ptr %32
}

; Function Attrs: inlinehint nounwind uwtable
define internal ptr @Vec_FltAlloc(i32 noundef %0) #3 {
  %2 = alloca i32, align 4
  %3 = alloca ptr, align 8
  store i32 %0, ptr %2, align 4, !tbaa !33
  call void @llvm.lifetime.start.p0(i64 8, ptr %3) #10
  %4 = call noalias ptr @malloc(i64 noundef 16) #12
  store ptr %4, ptr %3, align 8, !tbaa !40
  %5 = load i32, ptr %2, align 4, !tbaa !33
  %6 = icmp sgt i32 %5, 0
  br i1 %6, label %7, label %11

7:                                                ; preds = %1
  %8 = load i32, ptr %2, align 4, !tbaa !33
  %9 = icmp slt i32 %8, 16
  br i1 %9, label %10, label %11

10:                                               ; preds = %7
  store i32 16, ptr %2, align 4, !tbaa !33
  br label %11

11:                                               ; preds = %10, %7, %1
  %12 = load ptr, ptr %3, align 8, !tbaa !40
  %13 = getelementptr inbounds nuw %struct.Vec_Flt_t_, ptr %12, i32 0, i32 1
  store i32 0, ptr %13, align 4, !tbaa !41
  %14 = load i32, ptr %2, align 4, !tbaa !33
  %15 = load ptr, ptr %3, align 8, !tbaa !40
  %16 = getelementptr inbounds nuw %struct.Vec_Flt_t_, ptr %15, i32 0, i32 0
  store i32 %14, ptr %16, align 8, !tbaa !44
  %17 = load ptr, ptr %3, align 8, !tbaa !40
  %18 = getelementptr inbounds nuw %struct.Vec_Flt_t_, ptr %17, i32 0, i32 0
  %19 = load i32, ptr %18, align 8, !tbaa !44
  %20 = icmp ne i32 %19, 0
  br i1 %20, label %21, label %28

21:                                               ; preds = %11
  %22 = load ptr, ptr %3, align 8, !tbaa !40
  %23 = getelementptr inbounds nuw %struct.Vec_Flt_t_, ptr %22, i32 0, i32 0
  %24 = load i32, ptr %23, align 8, !tbaa !44
  %25 = sext i32 %24 to i64
  %26 = mul i64 4, %25
  %27 = call noalias ptr @malloc(i64 noundef %26) #12
  br label %29

28:                                               ; preds = %11
  br label %29

29:                                               ; preds = %28, %21
  %30 = phi ptr [ %27, %21 ], [ null, %28 ]
  %31 = load ptr, ptr %3, align 8, !tbaa !40
  %32 = getelementptr inbounds nuw %struct.Vec_Flt_t_, ptr %31, i32 0, i32 2
  store ptr %30, ptr %32, align 8, !tbaa !45
  %33 = load ptr, ptr %3, align 8, !tbaa !40
  call void @llvm.lifetime.end.p0(i64 8, ptr %3) #10
  ret ptr %33
}

; Function Attrs: inlinehint nounwind uwtable
define internal ptr @Hsh_VecManStart(i32 noundef %0) #3 {
  %2 = alloca i32, align 4
  %3 = alloca ptr, align 8
  store i32 %0, ptr %2, align 4, !tbaa !33
  call void @llvm.lifetime.start.p0(i64 8, ptr %3) #10
  %4 = call noalias ptr @calloc(i64 noundef 1, i64 noundef 72) #11
  store ptr %4, ptr %3, align 8, !tbaa !34
  %5 = load i32, ptr %2, align 4, !tbaa !33
  %6 = call i32 @Abc_PrimeCudd(i32 noundef %5)
  %7 = call ptr @Vec_IntStartFull(i32 noundef %6)
  %8 = load ptr, ptr %3, align 8, !tbaa !34
  %9 = getelementptr inbounds nuw %struct.Hsh_VecMan_t_, ptr %8, i32 0, i32 0
  store ptr %7, ptr %9, align 8, !tbaa !35
  %10 = load i32, ptr %2, align 4, !tbaa !33
  %11 = mul nsw i32 %10, 4
  %12 = call ptr @Vec_IntAlloc(i32 noundef %11)
  %13 = load ptr, ptr %3, align 8, !tbaa !34
  %14 = getelementptr inbounds nuw %struct.Hsh_VecMan_t_, ptr %13, i32 0, i32 1
  store ptr %12, ptr %14, align 8, !tbaa !38
  %15 = load i32, ptr %2, align 4, !tbaa !33
  %16 = call ptr @Vec_IntAlloc(i32 noundef %15)
  %17 = load ptr, ptr %3, align 8, !tbaa !34
  %18 = getelementptr inbounds nuw %struct.Hsh_VecMan_t_, ptr %17, i32 0, i32 2
  store ptr %16, ptr %18, align 8, !tbaa !39
  %19 = load ptr, ptr %3, align 8, !tbaa !34
  call void @llvm.lifetime.end.p0(i64 8, ptr %3) #10
  ret ptr %19
}

; Function Attrs: inlinehint nounwind uwtable
define internal i32 @Vec_WecSize(ptr noundef %0) #3 {
  %2 = alloca ptr, align 8
  store ptr %0, ptr %2, align 8, !tbaa !3
  %3 = load ptr, ptr %2, align 8, !tbaa !3
  %4 = getelementptr inbounds nuw %struct.Vec_Wec_t_, ptr %3, i32 0, i32 1
  %5 = load i32, ptr %4, align 4, !tbaa !31
  ret i32 %5
}

; Function Attrs: nounwind uwtable
define ptr @Fxch_ManAlloc(ptr noundef %0) #0 {
  %2 = alloca ptr, align 8
  %3 = alloca ptr, align 8
  store ptr %0, ptr %2, align 8, !tbaa !3
  call void @llvm.lifetime.start.p0(i64 8, ptr %3) #10
  %4 = call noalias ptr @calloc(i64 noundef 1, i64 noundef 216) #11
  store ptr %4, ptr %3, align 8, !tbaa !8
  %5 = load ptr, ptr %2, align 8, !tbaa !3
  %6 = load ptr, ptr %3, align 8, !tbaa !8
  %7 = getelementptr inbounds nuw %struct.Fxch_Man_t_, ptr %6, i32 0, i32 0
  store ptr %5, ptr %7, align 8, !tbaa !10
  %8 = load ptr, ptr %2, align 8, !tbaa !3
  %9 = call i32 @Vec_WecSize(ptr noundef %8)
  %10 = load ptr, ptr %3, align 8, !tbaa !8
  %11 = getelementptr inbounds nuw %struct.Fxch_Man_t_, ptr %10, i32 0, i32 1
  store i32 %9, ptr %11, align 8, !tbaa !20
  %12 = call ptr @Hsh_VecManStart(i32 noundef 1024)
  %13 = load ptr, ptr %3, align 8, !tbaa !8
  %14 = getelementptr inbounds nuw %struct.Fxch_Man_t_, ptr %13, i32 0, i32 7
  store ptr %12, ptr %14, align 8, !tbaa !21
  %15 = call ptr @Vec_FltAlloc(i32 noundef 1024)
  %16 = load ptr, ptr %3, align 8, !tbaa !8
  %17 = getelementptr inbounds nuw %struct.Fxch_Man_t_, ptr %16, i32 0, i32 8
  store ptr %15, ptr %17, align 8, !tbaa !22
  %18 = call ptr @Vec_WecAlloc(i32 noundef 1024)
  %19 = load ptr, ptr %3, align 8, !tbaa !8
  %20 = getelementptr inbounds nuw %struct.Fxch_Man_t_, ptr %19, i32 0, i32 10
  store ptr %18, ptr %20, align 8, !tbaa !23
  %21 = call ptr @Vec_IntAlloc(i32 noundef 4)
  %22 = load ptr, ptr %3, align 8, !tbaa !8
  %23 = getelementptr inbounds nuw %struct.Fxch_Man_t_, ptr %22, i32 0, i32 18
  store ptr %21, ptr %23, align 8, !tbaa !24
  %24 = call ptr @Vec_IntAlloc(i32 noundef 4)
  %25 = load ptr, ptr %3, align 8, !tbaa !8
  %26 = getelementptr inbounds nuw %struct.Fxch_Man_t_, ptr %25, i32 0, i32 19
  store ptr %24, ptr %26, align 8, !tbaa !25
  %27 = call ptr @Vec_IntAlloc(i32 noundef 128)
  %28 = load ptr, ptr %3, align 8, !tbaa !8
  %29 = getelementptr inbounds nuw %struct.Fxch_Man_t_, ptr %28, i32 0, i32 16
  store ptr %27, ptr %29, align 8, !tbaa !26
  %30 = call ptr @Vec_IntAlloc(i32 noundef 128)
  %31 = load ptr, ptr %3, align 8, !tbaa !8
  %32 = getelementptr inbounds nuw %struct.Fxch_Man_t_, ptr %31, i32 0, i32 17
  store ptr %30, ptr %32, align 8, !tbaa !27
  %33 = call ptr @Vec_IntAlloc(i32 noundef 64)
  %34 = load ptr, ptr %3, align 8, !tbaa !8
  %35 = getelementptr inbounds nuw %struct.Fxch_Man_t_, ptr %34, i32 0, i32 21
  store ptr %33, ptr %35, align 8, !tbaa !28
  %36 = call ptr @Vec_IntAlloc(i32 noundef 64)
  %37 = load ptr, ptr %3, align 8, !tbaa !8
  %38 = getelementptr inbounds nuw %struct.Fxch_Man_t_, ptr %37, i32 0, i32 20
  store ptr %36, ptr %38, align 8, !tbaa !29
  %39 = call ptr @Vec_IntAlloc(i32 noundef 64)
  %40 = load ptr, ptr %3, align 8, !tbaa !8
  %41 = getelementptr inbounds nuw %struct.Fxch_Man_t_, ptr %40, i32 0, i32 22
  store ptr %39, ptr %41, align 8, !tbaa !30
  %42 = load ptr, ptr %3, align 8, !tbaa !8
  call void @llvm.lifetime.end.p0(i64 8, ptr %3) #10
  ret ptr %42
}