; Function Attrs: nofree nounwind memory(write, argmem: read, inaccessiblemem: readwrite) uwtable
define noalias noundef ptr @Fxch_ManAlloc(ptr noundef %0) local_unnamed_addr #0 {
  %2 = tail call noalias dereferenceable_or_null(216) ptr @calloc(i64 noundef 1, i64 noundef 216) #19
  store ptr %0, ptr %2, align 8, !tbaa !3
  %3 = getelementptr i8, ptr %0, i64 4
  %.val = load i32, ptr %3, align 4, !tbaa !17
  %4 = getelementptr inbounds nuw i8, ptr %2, i64 8
  store i32 %.val, ptr %4, align 8, !tbaa !19
  %5 = tail call noalias dereferenceable_or_null(72) ptr @calloc(i64 noundef 1, i64 noundef 72) #19
  br label %.loopexit.i.i

.loopexit.i.i:                                    ; preds = %.loopexit.i.i.backedge, %1
  %.012.i.i = phi i32 [ 1023, %1 ], [ %6, %.loopexit.i.i.backedge ]
  %6 = add i32 %.012.i.i, 1
  %7 = and i32 %.012.i.i, 1
  %.not.not.i.i = icmp eq i32 %7, 0
  br i1 %.not.not.i.i, label %.preheader.i.i, label %.loopexit.i.i.backedge

.loopexit.i.i.backedge:                           ; preds = %.lr.ph.i.i, %.loopexit.i.i
  br label %.loopexit.i.i, !llvm.loop !20

.preheader.i.i:                                   ; preds = %.loopexit.i.i
  %.not15.i.i = icmp ult i32 %6, 9
  br i1 %.not15.i.i, label %Abc_PrimeCudd.exit.i, label %.lr.ph.i.i

8:                                                ; preds = %.lr.ph.i.i
  %9 = add nuw nsw i32 %.01116.i.i, 2
  %10 = mul nuw nsw i32 %9, %9
  %.not.i.i = icmp ugt i32 %10, %6
  br i1 %.not.i.i, label %Abc_PrimeCudd.exit.i, label %.lr.ph.i.i, !llvm.loop !22

.lr.ph.i.i:                                       ; preds = %.preheader.i.i, %8
  %.01116.i.i = phi i32 [ %9, %8 ], [ 3, %.preheader.i.i ]
  %11 = urem i32 %6, %.01116.i.i
  %12 = icmp eq i32 %11, 0
  br i1 %12, label %.loopexit.i.i.backedge, label %8, !llvm.loop !20

Abc_PrimeCudd.exit.i:                             ; preds = %.preheader.i.i, %8
  %13 = tail call noalias dereferenceable_or_null(16) ptr @malloc(i64 noundef 16) #20
  %or.cond.i.i.i = icmp ult i32 %.012.i.i, 15
  %spec.store.select.i.i.i = select i1 %or.cond.i.i.i, i32 16, i32 %6
  store i32 %spec.store.select.i.i.i, ptr %13, align 8, !tbaa !23
  %14 = getelementptr inbounds nuw i8, ptr %13, i64 4
  %15 = sext i32 %spec.store.select.i.i.i to i64
  %16 = shl nsw i64 %15, 2
  %17 = tail call noalias ptr @malloc(i64 noundef %16) #20
  %18 = getelementptr inbounds nuw i8, ptr %13, i64 8
  store ptr %17, ptr %18, align 8, !tbaa !25
  store i32 %6, ptr %14, align 4, !tbaa !26
  %.not.i6.i = icmp eq ptr %17, null
  br i1 %.not.i6.i, label %Hsh_VecManStart.exit, label %19

19:                                               ; preds = %Abc_PrimeCudd.exit.i
  %20 = sext i32 %6 to i64
  %21 = shl nsw i64 %20, 2
  tail call void @llvm.memset.p0.i64(ptr nonnull align 4 %17, i8 -1, i64 %21, i1 false)
  br label %Hsh_VecManStart.exit

Hsh_VecManStart.exit:                             ; preds = %Abc_PrimeCudd.exit.i, %19
  store ptr %13, ptr %5, align 8, !tbaa !27
  %22 = tail call noalias dereferenceable_or_null(16) ptr @malloc(i64 noundef 16) #20
  %23 = getelementptr inbounds nuw i8, ptr %22, i64 4
  store i32 0, ptr %23, align 4, !tbaa !26
  store i32 4096, ptr %22, align 8, !tbaa !23
  %24 = tail call noalias dereferenceable_or_null(16384) ptr @malloc(i64 noundef 16384) #20
  %25 = getelementptr inbounds nuw i8, ptr %22, i64 8
  store ptr %24, ptr %25, align 8, !tbaa !25
  %26 = getelementptr inbounds nuw i8, ptr %5, i64 8
  store ptr %22, ptr %26, align 8, !tbaa !29
  %27 = tail call noalias dereferenceable_or_null(16) ptr @malloc(i64 noundef 16) #20
  %28 = getelementptr inbounds nuw i8, ptr %27, i64 4
  store i32 0, ptr %28, align 4, !tbaa !26
  store i32 1024, ptr %27, align 8, !tbaa !23
  %29 = tail call noalias dereferenceable_or_null(4096) ptr @malloc(i64 noundef 4096) #20
  %30 = getelementptr inbounds nuw i8, ptr %27, i64 8
  store ptr %29, ptr %30, align 8, !tbaa !25
  %31 = getelementptr inbounds nuw i8, ptr %5, i64 16
  store ptr %27, ptr %31, align 8, !tbaa !30
  %32 = getelementptr inbounds nuw i8, ptr %2, i64 48
  store ptr %5, ptr %32, align 8, !tbaa !31
  %33 = tail call noalias dereferenceable_or_null(16) ptr @malloc(i64 noundef 16) #20
  %34 = getelementptr inbounds nuw i8, ptr %33, i64 4
  store i32 0, ptr %34, align 4, !tbaa !32
  store i32 1024, ptr %33, align 8, !tbaa !35
  %35 = tail call noalias dereferenceable_or_null(4096) ptr @malloc(i64 noundef 4096) #20
  %36 = getelementptr inbounds nuw i8, ptr %33, i64 8
  store ptr %35, ptr %36, align 8, !tbaa !36
  %37 = getelementptr inbounds nuw i8, ptr %2, i64 56
  store ptr %33, ptr %37, align 8, !tbaa !37
  %38 = tail call noalias dereferenceable_or_null(16) ptr @malloc(i64 noundef 16) #20
  %39 = getelementptr inbounds nuw i8, ptr %38, i64 4
  store i32 0, ptr %39, align 4, !tbaa !17
  store i32 1024, ptr %38, align 8, !tbaa !38
  %40 = tail call noalias dereferenceable_or_null(16384) ptr @calloc(i64 noundef 1024, i64 noundef 16) #19
  %41 = getelementptr inbounds nuw i8, ptr %38, i64 8
  store ptr %40, ptr %41, align 8, !tbaa !39
  %42 = getelementptr inbounds nuw i8, ptr %2, i64 72
  store ptr %38, ptr %42, align 8, !tbaa !40
  %43 = tail call noalias dereferenceable_or_null(16) ptr @malloc(i64 noundef 16) #20
  %44 = getelementptr inbounds nuw i8, ptr %43, i64 4
  store i32 0, ptr %44, align 4, !tbaa !26
  store i32 16, ptr %43, align 8, !tbaa !23
  %45 = tail call noalias dereferenceable_or_null(64) ptr @malloc(i64 noundef 64) #20
  %46 = getelementptr inbounds nuw i8, ptr %43, i64 8
  store ptr %45, ptr %46, align 8, !tbaa !25
  %47 = getelementptr inbounds nuw i8, ptr %2, i64 136
  store ptr %43, ptr %47, align 8, !tbaa !41
  %48 = tail call noalias dereferenceable_or_null(16) ptr @malloc(i64 noundef 16) #20
  %49 = getelementptr inbounds nuw i8, ptr %48, i64 4
  store i32 0, ptr %49, align 4, !tbaa !26
  store i32 16, ptr %48, align 8, !tbaa !23
  %50 = tail call noalias dereferenceable_or_null(64) ptr @malloc(i64 noundef 64) #20
  %51 = getelementptr inbounds nuw i8, ptr %48, i64 8
  store ptr %50, ptr %51, align 8, !tbaa !25
  %52 = getelementptr inbounds nuw i8, ptr %2, i64 144
  store ptr %48, ptr %52, align 8, !tbaa !42
  %53 = tail call noalias dereferenceable_or_null(16) ptr @malloc(i64 noundef 16) #20
  %54 = getelementptr inbounds nuw i8, ptr %53, i64 4
  store i32 0, ptr %54, align 4, !tbaa !26
  store i32 128, ptr %53, align 8, !tbaa !23
  %55 = tail call noalias dereferenceable_or_null(512) ptr @malloc(i64 noundef 512) #20
  %56 = getelementptr inbounds nuw i8, ptr %53, i64 8
  store ptr %55, ptr %56, align 8, !tbaa !25
  %57 = getelementptr inbounds nuw i8, ptr %2, i64 120
  store ptr %53, ptr %57, align 8, !tbaa !43
  %58 = tail call noalias dereferenceable_or_null(16) ptr @malloc(i64 noundef 16) #20
  %59 = getelementptr inbounds nuw i8, ptr %58, i64 4
  store i32 0, ptr %59, align 4, !tbaa !26
  store i32 128, ptr %58, align 8, !tbaa !23
  %60 = tail call noalias dereferenceable_or_null(512) ptr @malloc(i64 noundef 512) #20
  %61 = getelementptr inbounds nuw i8, ptr %58, i64 8
  store ptr %60, ptr %61, align 8, !tbaa !25
  %62 = getelementptr inbounds nuw i8, ptr %2, i64 128
  store ptr %58, ptr %62, align 8, !tbaa !44
  %63 = tail call noalias dereferenceable_or_null(16) ptr @malloc(i64 noundef 16) #20
  %64 = getelementptr inbounds nuw i8, ptr %63, i64 4
  store i32 0, ptr %64, align 4, !tbaa !26
  store i32 64, ptr %63, align 8, !tbaa !23
  %65 = tail call noalias dereferenceable_or_null(256) ptr @malloc(i64 noundef 256) #20
  %66 = getelementptr inbounds nuw i8, ptr %63, i64 8
  store ptr %65, ptr %66, align 8, !tbaa !25
  %67 = getelementptr inbounds nuw i8, ptr %2, i64 160
  store ptr %63, ptr %67, align 8, !tbaa !45
  %68 = tail call noalias dereferenceable_or_null(16) ptr @malloc(i64 noundef 16) #20
  %69 = getelementptr inbounds nuw i8, ptr %68, i64 4
  store i32 0, ptr %69, align 4, !tbaa !26
  store i32 64, ptr %68, align 8, !tbaa !23
  %70 = tail call noalias dereferenceable_or_null(256) ptr @malloc(i64 noundef 256) #20
  %71 = getelementptr inbounds nuw i8, ptr %68, i64 8
  store ptr %70, ptr %71, align 8, !tbaa !25
  %72 = getelementptr inbounds nuw i8, ptr %2, i64 152
  store ptr %68, ptr %72, align 8, !tbaa !46
  %73 = tail call noalias dereferenceable_or_null(16) ptr @malloc(i64 noundef 16) #20
  %74 = getelementptr inbounds nuw i8, ptr %73, i64 4
  store i32 0, ptr %74, align 4, !tbaa !26
  store i32 64, ptr %73, align 8, !tbaa !23
  %75 = tail call noalias dereferenceable_or_null(256) ptr @malloc(i64 noundef 256) #20
  %76 = getelementptr inbounds nuw i8, ptr %73, i64 8
  store ptr %75, ptr %76, align 8, !tbaa !25
  %77 = getelementptr inbounds nuw i8, ptr %2, i64 168
  store ptr %73, ptr %77, align 8, !tbaa !47
  ret ptr %2
}